target datalayout = "e-m:e-p270:32:32-p271:32:32-p272:64:64-i64:64-i128:128-f80:128-n8:16:32:64-S128"
target triple = "x86_64-pc-linux-gnu"

@_ZTIN6icu_7714TransliteratorE = constant { ptr, ptr, ptr } { ptr getelementptr inbounds (ptr, ptr @_ZTVN10__cxxabiv120__si_class_type_infoE, i64 2), ptr @_ZTSN6icu_7714TransliteratorE, ptr @_ZTIN6icu_777UObjectE }, align 8
@_ZTIN6icu_7722CompoundTransliteratorE = external constant ptr

; Function Attrs: mustprogress uwtable
define noundef i32 @_ZNK6icu_7714Transliterator13countElementsEv(ptr noundef nonnull align 8 dereferenceable(84) %0) #1 align 2 {
  %2 = alloca ptr, align 8
  %3 = alloca ptr, align 8
  store ptr %0, ptr %2, align 8, !tbaa !23
  %4 = load ptr, ptr %2, align 8
  call void @llvm.lifetime.start.p0(i64 8, ptr %3) #15
  %5 = icmp eq ptr %4, null
  br i1 %5, label %8, label %6

6:                                                ; preds = %1
  %7 = call ptr @__dynamic_cast(ptr %4, ptr @_ZTIN6icu_7714TransliteratorE, ptr @_ZTIN6icu_7722CompoundTransliteratorE, i64 0) #15
  br label %9

8:                                                ; preds = %1
  br label %9

9:                                                ; preds = %8, %6
  %10 = phi ptr [ %7, %6 ], [ null, %8 ]
  store ptr %10, ptr %3, align 8, !tbaa !130
  %11 = load ptr, ptr %3, align 8, !tbaa !130
  %12 = icmp ne ptr %11, null
  br i1 %12, label %13, label %19

13:                                               ; preds = %9
  %14 = load ptr, ptr %3, align 8, !tbaa !130
  %15 = load ptr, ptr %14, align 8, !tbaa !29
  %16 = getelementptr inbounds ptr, ptr %15, i64 17
  %17 = load ptr, ptr %16, align 8
  %18 = call noundef i32 %17(ptr noundef nonnull align 8 dereferenceable(104) %14)
  br label %20

19:                                               ; preds = %9
  br label %20

20:                                               ; preds = %19, %13
  %21 = phi i32 [ %18, %13 ], [ 0, %19 ]
  call void @llvm.lifetime.end.p0(i64 8, ptr %3) #15
  ret i32 %21
}