; Function Attrs: mustprogress uwtable
define noundef i32 @_ZNK6icu_7714Transliterator13countElementsEv(ptr noundef nonnull align 8 dereferenceable(84) %0) local_unnamed_addr #1 align 2 {
  %2 = tail call ptr @__dynamic_cast(ptr nonnull %0, ptr nonnull @_ZTIN6icu_7714TransliteratorE, ptr nonnull @_ZTIN6icu_7722CompoundTransliteratorE, i64 0) #21
  %.not = icmp eq ptr %2, null
  br i1 %.not, label %8, label %3

3:                                                ; preds = %1
  %4 = load ptr, ptr %2, align 8, !tbaa !15
  %5 = getelementptr inbounds nuw i8, ptr %4, i64 136
  %6 = load ptr, ptr %5, align 8
  %7 = tail call noundef i32 %6(ptr noundef nonnull align 8 dereferenceable(104) %2)
  br label %8

8:                                                ; preds = %1, %3
  %9 = phi i32 [ %7, %3 ], [ 0, %1 ]
  ret i32 %9
}